(dp0
S'show_imports'
p1
I1
sS'prj_name'
p2
S'MDSplus'
p3
sS'docformat'
p4
S'epytext'
p5
sS'inheritance'
p6
S'grouped'
p7
sS'help'
p8
NsS'modules'
p9
(S'apd.py'
p10
S'array.py'
p11
S'compound.py'
p12
S'ident.py'
p13
S'scalar.py'
p14
S'tree.py'
p15
S'treenode.py'
p16
S'mdsdata.py'
p17
tp18
sS'private'
p19
I0
sS'prj_url'
p20
NsS'introspect_or_parse'
p21
S'both'
p22
sS'frames'
p23
I1
sS'css'
p24
S'default'
p25
sS'target'
p26
S'html'
p27
s.