;
; Definition file of RtEventsShr.dll
; Automatic generated by gendef
; written by Kai Tietz 2008
;
LIBRARY "RtEventsShr.dll"
EXPORTS
EventAddListener
EventAddListenerGlobal
EventClean
EventGetSerializedMemState
EventGetSerializedState
EventRegisterExecute
EventRemoveListener
EventReset
EventTrigger
EventTriggerAndTimedWait
EventTriggerAndWait
EventTriggerExecute
EventWait
MdsEventAddListener
MdsEventClean
MdsEventGetMemState
MdsEventGetState
MdsEventRemoveListener
MdsEventTrigger
MdsEventTriggerAndWait
MdsEventWait
_ZN11ExitHandler10handlerIdxE DATA
_ZN11ExitHandler6atExitEP8Runnable
_ZN11ExitHandler7disposeEv
_ZN12EventManager10getHandlerEPKc@4
_ZN12EventManager10initializeEv
_ZN12EventManager11addListenerEPKcP16ThreadAttributesPFvPcS4_iPvbiS4_iEP16SharedMemManagerS5_bi@28
_ZN12EventManager13getMemManagerEv
_ZN12EventManager13startWatchdogEP16SharedMemManager@4
_ZN12EventManager14removeListenerEPvP16SharedMemManager@8
_ZN12EventManager14resizeListenerEPviP16SharedMemManager@12
_ZN12EventManager14triggerAndWaitEPKcPciiP16SharedMemManagerbP10MdsTimeout@28
_ZN12EventManager15getEventManagerEv
_ZN12EventManager17triggerAndCollectEPKcPciiP16SharedMemManagerbP11EventAnswerP10MdsTimeout@32
_ZN12EventManager5cleanEPKciP16SharedMemManager@12
_ZN12EventManager5cleanEiP16SharedMemManager@8
_ZN12EventManager7triggerEPKcPciiP16SharedMemManagerb@24
_ZN12EventManager8getStateEv
_ZN12SharedMemory10initializeEii@8
_ZN12SharedMemory12getStartAddrEv
_ZN12SharedMemory12startAddressE DATA
_ZN17AllocationManager10initializeEi@4
_ZN17AllocationManager11getFreeSizeEv
_ZN17AllocationManager13getDescriptorEv
_ZN17AllocationManager14allocateSharedEi@4
_ZN17AllocationManager14getFirstBufferEv
_ZN17AllocationManager16deallocateSharedEPci@8
_ZN17AllocationManager17releaseDescriptorEPNS_14FreeDescriptorE@4
_ZN17AllocationManager5printEv
_ZN17AllocationManager8getStateEi@4
_ZN17TCPNetworkManager10fromNativeEj ; Check!!! Couldn't determine function argument count. Function doesn't return. 
_ZN17TCPNetworkManager11sendMessageEP14NetworkAddressPci@12
_ZN17TCPNetworkManager13connectSenderEP14NetworkAddress@4
_ZN17TCPNetworkManager15connectReceiverEP14NetworkAddressP15NetworkReceiver@8
_ZN17TCPNetworkManager8toNativeEj ; Check!!! Couldn't determine function argument count. Function doesn't return. 
_ZN17UDPNetworkManager10fromNativeEj ; Check!!! Couldn't determine function argument count. Function doesn't return. 
_ZN17UDPNetworkManager11sendMessageEP14NetworkAddressPci@12
_ZN17UDPNetworkManager13connectSenderEP14NetworkAddress@4
_ZN17UDPNetworkManager15connectReceiverEP14NetworkAddressP15NetworkReceiver@8
_ZN17UDPNetworkManager4joinEP9IPAddress@4
_ZN17UDPNetworkManager8toNativeEj ; Check!!! Couldn't determine function argument count. Function doesn't return. 
_ZN5Event5resetEv
_ZN6Thread4joinEv
_ZN6Thread5startEP8RunnablePvb@12
_ZN8Notifier10initializeEP16ThreadAttributesP8RunnablePv@12
_ZN8Notifier12synchTriggerEv
_ZN8Notifier15waitTerminationER10MdsTimeout@4
_ZN8Notifier15waitTerminationEv
_ZN8Notifier15watchdogTriggerEv
_ZN8Notifier7disposeEbP16SharedMemManager@8
_ZN8Notifier7disposeEv
_ZN8Notifier7triggerEv
_ZN8Notifier8isOrphanEv
_ZN8Notifier9isPendingEv
_ZN9IPAddress11initializedE DATA
_ZTI14NetworkAddress DATA
_ZTI14NetworkManager DATA
_ZTI15NetworkReceiver DATA
_ZTI17TCPNetworkManager DATA
_ZTI17UDPNetworkManager DATA
_ZTI8Runnable DATA
_ZTI9IPAddress DATA
_ZTV14NetworkAddress DATA
_ZTV14NetworkManager DATA
_ZTV15NetworkReceiver DATA
_ZTV17TCPNetworkManager DATA
_ZTV17UDPNetworkManager DATA
_ZTV8Runnable DATA
_ZTV9IPAddress DATA
